target datalayout = "e-m:e-p270:32:32-p271:32:32-p272:64:64-i64:64-i128:128-f80:128-n8:16:32:64-S128"
target triple = "x86_64-pc-linux-gnu"

%struct.pg_enc2name = type { ptr, i32 }
%struct.pg_wchar_tbl = type { ptr, ptr, ptr, ptr, ptr, ptr, i32 }

@DatabaseEncoding = internal global ptr @pg_enc2name_tbl, align 8
@pg_wchar_table = external constant [0 x %struct.pg_wchar_tbl], align 8

; Function Attrs: nounwind uwtable
define internal i32 @cliplen(ptr noundef %0, i32 noundef %1, i32 noundef %2) #1 {
  %4 = alloca ptr, align 8
  %5 = alloca i32, align 4
  %6 = alloca i32, align 4
  %7 = alloca i32, align 4
  store ptr %0, ptr %4, align 8
  store i32 %1, ptr %5, align 4
  store i32 %2, ptr %6, align 4
  call void @llvm.lifetime.start.p0(i64 4, ptr %7) #9
  store i32 0, ptr %7, align 4
  %8 = load i32, ptr %5, align 4
  %9 = load i32, ptr %6, align 4
  %10 = icmp slt i32 %8, %9
  br i1 %10, label %11, label %13

11:                                               ; preds = %3
  %12 = load i32, ptr %5, align 4
  br label %15

13:                                               ; preds = %3
  %14 = load i32, ptr %6, align 4
  br label %15

15:                                               ; preds = %13, %11
  %16 = phi i32 [ %12, %11 ], [ %14, %13 ]
  store i32 %16, ptr %5, align 4
  br label %17

17:                                               ; preds = %31, %15
  %18 = load i32, ptr %7, align 4
  %19 = load i32, ptr %5, align 4
  %20 = icmp slt i32 %18, %19
  br i1 %20, label %21, label %29

21:                                               ; preds = %17
  %22 = load ptr, ptr %4, align 8
  %23 = load i32, ptr %7, align 4
  %24 = sext i32 %23 to i64
  %25 = getelementptr inbounds i8, ptr %22, i64 %24
  %26 = load i8, ptr %25, align 1
  %27 = sext i8 %26 to i32
  %28 = icmp ne i32 %27, 0
  br label %29

29:                                               ; preds = %21, %17
  %30 = phi i1 [ false, %17 ], [ %28, %21 ]
  br i1 %30, label %31, label %34

31:                                               ; preds = %29
  %32 = load i32, ptr %7, align 4
  %33 = add i32 %32, 1
  store i32 %33, ptr %7, align 4
  br label %17, !llvm.loop !14

34:                                               ; preds = %29
  %35 = load i32, ptr %7, align 4
  call void @llvm.lifetime.end.p0(i64 4, ptr %7) #9
  ret i32 %35
}

; Function Attrs: nounwind uwtable
define dso_local i32 @pg_encoding_mbcliplen(i32 noundef %0, ptr noundef %1, i32 noundef %2, i32 noundef %3) #1 {
  %5 = alloca i32, align 4
  %6 = alloca i32, align 4
  %7 = alloca ptr, align 8
  %8 = alloca i32, align 4
  %9 = alloca i32, align 4
  %10 = alloca ptr, align 8
  %11 = alloca i32, align 4
  %12 = alloca i32, align 4
  %13 = alloca i32, align 4
  store i32 %0, ptr %6, align 4
  store ptr %1, ptr %7, align 8
  store i32 %2, ptr %8, align 4
  store i32 %3, ptr %9, align 4
  call void @llvm.lifetime.start.p0(i64 8, ptr %10) #9
  call void @llvm.lifetime.start.p0(i64 4, ptr %11) #9
  store i32 0, ptr %11, align 4
  call void @llvm.lifetime.start.p0(i64 4, ptr %12) #9
  %14 = load i32, ptr %6, align 4
  %15 = call i32 @pg_encoding_max_length(i32 noundef %14)
  %16 = icmp eq i32 %15, 1
  br i1 %16, label %17, label %22

17:                                               ; preds = %4
  %18 = load ptr, ptr %7, align 8
  %19 = load i32, ptr %8, align 4
  %20 = load i32, ptr %9, align 4
  %21 = call i32 @cliplen(ptr noundef %18, i32 noundef %19, i32 noundef %20)
  store i32 %21, ptr %5, align 4
  store i32 1, ptr %13, align 4
  br label %66

22:                                               ; preds = %4
  %23 = load i32, ptr %6, align 4
  %24 = sext i32 %23 to i64
  %25 = getelementptr inbounds [0 x %struct.pg_wchar_tbl], ptr @pg_wchar_table, i64 0, i64 %24
  %26 = getelementptr inbounds nuw %struct.pg_wchar_tbl, ptr %25, i32 0, i32 2
  %27 = load ptr, ptr %26, align 8
  store ptr %27, ptr %10, align 8
  br label %28

28:                                               ; preds = %56, %22
  %29 = load i32, ptr %8, align 4
  %30 = icmp sgt i32 %29, 0
  br i1 %30, label %31, label %36

31:                                               ; preds = %28
  %32 = load ptr, ptr %7, align 8
  %33 = load i8, ptr %32, align 1
  %34 = sext i8 %33 to i32
  %35 = icmp ne i32 %34, 0
  br label %36

36:                                               ; preds = %31, %28
  %37 = phi i1 [ false, %28 ], [ %35, %31 ]
  br i1 %37, label %38, label %64

38:                                               ; preds = %36
  %39 = load ptr, ptr %10, align 8
  %40 = load ptr, ptr %7, align 8
  %41 = call i32 %39(ptr noundef %40)
  store i32 %41, ptr %12, align 4
  %42 = load i32, ptr %11, align 4
  %43 = load i32, ptr %12, align 4
  %44 = add i32 %42, %43
  %45 = load i32, ptr %9, align 4
  %46 = icmp sgt i32 %44, %45
  br i1 %46, label %47, label %48

47:                                               ; preds = %38
  br label %64

48:                                               ; preds = %38
  %49 = load i32, ptr %12, align 4
  %50 = load i32, ptr %11, align 4
  %51 = add i32 %50, %49
  store i32 %51, ptr %11, align 4
  %52 = load i32, ptr %11, align 4
  %53 = load i32, ptr %9, align 4
  %54 = icmp eq i32 %52, %53
  br i1 %54, label %55, label %56

55:                                               ; preds = %48
  br label %64

56:                                               ; preds = %48
  %57 = load i32, ptr %12, align 4
  %58 = load i32, ptr %8, align 4
  %59 = sub i32 %58, %57
  store i32 %59, ptr %8, align 4
  %60 = load i32, ptr %12, align 4
  %61 = load ptr, ptr %7, align 8
  %62 = sext i32 %60 to i64
  %63 = getelementptr inbounds i8, ptr %61, i64 %62
  store ptr %63, ptr %7, align 8
  br label %28, !llvm.loop !13

64:                                               ; preds = %55, %47, %36
  %65 = load i32, ptr %11, align 4
  store i32 %65, ptr %5, align 4
  store i32 1, ptr %13, align 4
  br label %66

66:                                               ; preds = %64, %17
  call void @llvm.lifetime.end.p0(i64 4, ptr %12) #9
  call void @llvm.lifetime.end.p0(i64 4, ptr %11) #9
  call void @llvm.lifetime.end.p0(i64 8, ptr %10) #9
  %67 = load i32, ptr %5, align 4
  ret i32 %67
}

; Function Attrs: nounwind uwtable
define dso_local i32 @pg_mbcliplen(ptr noundef %0, i32 noundef %1, i32 noundef %2) #1 {
  %4 = alloca ptr, align 8
  %5 = alloca i32, align 4
  %6 = alloca i32, align 4
  store ptr %0, ptr %4, align 8
  store i32 %1, ptr %5, align 4
  store i32 %2, ptr %6, align 4
  %7 = load ptr, ptr @DatabaseEncoding, align 8
  %8 = getelementptr inbounds nuw %struct.pg_enc2name, ptr %7, i32 0, i32 1
  %9 = load i32, ptr %8, align 8
  %10 = load ptr, ptr %4, align 8
  %11 = load i32, ptr %5, align 4
  %12 = load i32, ptr %6, align 4
  %13 = call i32 @pg_encoding_mbcliplen(i32 noundef %9, ptr noundef %10, i32 noundef %11, i32 noundef %12)
  ret i32 %13
}