; Function Attrs: nounwind uwtable
define dso_local i32 @pg_mbcliplen(ptr noundef %0, i32 noundef %1, i32 noundef %2) local_unnamed_addr #0 {
  %4 = load ptr, ptr @DatabaseEncoding, align 8
  %5 = getelementptr inbounds nuw i8, ptr %4, i64 8
  %6 = load i32, ptr %5, align 8
  %7 = tail call i32 @pg_encoding_max_length(i32 noundef %6) #13
  %8 = icmp eq i32 %7, 1
  br i1 %8, label %9, label %16

9:                                                ; preds = %3
  %10 = tail call i32 @llvm.smin.i32(i32 %1, i32 %2)
  %11 = icmp sgt i32 %10, 0
  br i1 %11, label %.lr.ph.preheader.i.i, label %pg_encoding_mbcliplen.exit

.lr.ph.preheader.i.i:                             ; preds = %9
  %wide.trip.count.i.i = zext nneg i32 %10 to i64
  br label %.lr.ph.i.i

.lr.ph.i.i:                                       ; preds = %14, %.lr.ph.preheader.i.i
  %indvars.iv.i.i = phi i64 [ 0, %.lr.ph.preheader.i.i ], [ %indvars.iv.next.i.i, %14 ]
  %12 = getelementptr inbounds nuw i8, ptr %0, i64 %indvars.iv.i.i
  %13 = load i8, ptr %12, align 1
  %.not.i.i = icmp eq i8 %13, 0
  br i1 %.not.i.i, label %.critedge.loopexit.split.loop.exit13.i.i, label %14

14:                                               ; preds = %.lr.ph.i.i
  %indvars.iv.next.i.i = add nuw nsw i64 %indvars.iv.i.i, 1
  %exitcond.not.i.i = icmp eq i64 %indvars.iv.next.i.i, %wide.trip.count.i.i
  br i1 %exitcond.not.i.i, label %pg_encoding_mbcliplen.exit, label %.lr.ph.i.i, !llvm.loop !10

.critedge.loopexit.split.loop.exit13.i.i:         ; preds = %.lr.ph.i.i
  %15 = trunc nuw nsw i64 %indvars.iv.i.i to i32
  br label %pg_encoding_mbcliplen.exit

16:                                               ; preds = %3
  %17 = sext i32 %6 to i64
  %18 = getelementptr inbounds [0 x %struct.pg_wchar_tbl], ptr @pg_wchar_table, i64 0, i64 %17, i32 2
  %19 = load ptr, ptr %18, align 8
  %20 = icmp sgt i32 %1, 0
  br i1 %20, label %.lr.ph.i, label %pg_encoding_mbcliplen.exit

.lr.ph.i:                                         ; preds = %16, %28
  %.02130.i = phi i32 [ %24, %28 ], [ 0, %16 ]
  %.02229.i = phi ptr [ %31, %28 ], [ %0, %16 ]
  %.02328.i = phi i32 [ %29, %28 ], [ %1, %16 ]
  %21 = load i8, ptr %.02229.i, align 1
  %.not.i = icmp eq i8 %21, 0
  br i1 %.not.i, label %pg_encoding_mbcliplen.exit, label %22

22:                                               ; preds = %.lr.ph.i
  %23 = tail call i32 %19(ptr noundef nonnull %.02229.i) #13
  %24 = add i32 %23, %.02130.i
  %25 = icmp sgt i32 %24, %2
  br i1 %25, label %pg_encoding_mbcliplen.exit, label %26

26:                                               ; preds = %22
  %27 = icmp eq i32 %24, %2
  br i1 %27, label %pg_encoding_mbcliplen.exit, label %28

28:                                               ; preds = %26
  %29 = sub i32 %.02328.i, %23
  %30 = sext i32 %23 to i64
  %31 = getelementptr inbounds i8, ptr %.02229.i, i64 %30
  %32 = icmp sgt i32 %29, 0
  br i1 %32, label %.lr.ph.i, label %pg_encoding_mbcliplen.exit, !llvm.loop !11

pg_encoding_mbcliplen.exit:                       ; preds = %.lr.ph.i, %22, %26, %28, %14, %9, %.critedge.loopexit.split.loop.exit13.i.i, %16
  %.0.i = phi i32 [ 0, %9 ], [ %15, %.critedge.loopexit.split.loop.exit13.i.i ], [ 0, %16 ], [ %10, %14 ], [ %.02130.i, %.lr.ph.i ], [ %.02130.i, %22 ], [ %2, %26 ], [ %24, %28 ]
  ret i32 %.0.i
}